; Function Attrs: mustprogress uwtable
define hidden void @_ZN15fpa_decl_plugin3delERK9parameter(ptr noundef nonnull align 8 dereferenceable(1008) %this, ptr nocapture noundef nonnull readonly align 8 dereferenceable(16) %p) unnamed_addr #3 align 2 {
entry:
  %id.addr.i = alloca i32, align 4
  %_M_index.i.i.i.i = getelementptr inbounds i8, ptr %p, i64 8
  %0 = load i8, ptr %_M_index.i.i.i.i, align 8
  %cmp.not.i.i.i = icmp eq i8 %0, 6
  br i1 %cmp.not.i.i.i, label %_ZNK9parameter10get_ext_idEv.exit, label %if.then.i.i.i

if.then.i.i.i:                                    ; preds = %entry
  %exception.i.i.i.i.i = tail call ptr @__cxa_allocate_exception(i64 16) #18
  store ptr getelementptr inbounds ({ [5 x ptr] }, ptr @_ZTVSt18bad_variant_access, i64 0, i32 0, i64 2), ptr %exception.i.i.i.i.i, align 8
  %_M_reason.i.i.i.i.i.i = getelementptr inbounds i8, ptr %exception.i.i.i.i.i, i64 8
  store ptr @.str.119, ptr %_M_reason.i.i.i.i.i.i, align 8
  tail call void @__cxa_throw(ptr nonnull %exception.i.i.i.i.i, ptr nonnull @_ZTISt18bad_variant_access, ptr nonnull @_ZNSt18bad_variant_accessD2Ev) #21
  unreachable

_ZNK9parameter10get_ext_idEv.exit:                ; preds = %entry
  %1 = load i32, ptr %p, align 8
  call void @llvm.lifetime.start.p0(i64 4, ptr nonnull %id.addr.i)
  store i32 %1, ptr %id.addr.i, align 4
  %m_value_table.i = getelementptr inbounds i8, ptr %this, i64 896
  call void @_ZN10chashtableIjN15fpa_decl_plugin13mpf_hash_procENS0_11mpf_eq_procEE5eraseERKj(ptr noundef nonnull align 8 dereferenceable(80) %m_value_table.i, ptr noundef nonnull align 4 dereferenceable(4) %id.addr.i)
  %2 = load i32, ptr %id.addr.i, align 4
  %call.i.i = call noundef zeroext i1 @_ZN6memory16is_out_of_memoryEv()
  br i1 %call.i.i, label %_ZN15fpa_decl_plugin11recycled_idEj.exit, label %if.end.i.i

if.end.i.i:                                       ; preds = %_ZNK9parameter10get_ext_idEv.exit
  %m_free_ids.i.i = getelementptr inbounds i8, ptr %this, i64 872
  %3 = load ptr, ptr %m_free_ids.i.i, align 8
  %cmp.i.i.i = icmp eq ptr %3, null
  br i1 %cmp.i.i.i, label %if.then.i.i.i1, label %lor.lhs.false.i.i.i

lor.lhs.false.i.i.i:                              ; preds = %if.end.i.i
  %arrayidx.i.i.i = getelementptr inbounds i8, ptr %3, i64 -4
  %4 = load i32, ptr %arrayidx.i.i.i, align 4
  %arrayidx4.i.i.i = getelementptr inbounds i8, ptr %3, i64 -8
  %5 = load i32, ptr %arrayidx4.i.i.i, align 4
  %cmp5.i.i.i = icmp eq i32 %4, %5
  br i1 %cmp5.i.i.i, label %if.then.i.i.i1, label %_ZN6vectorIjLb0EjE9push_backERKj.exit.i.i

if.then.i.i.i1:                                   ; preds = %lor.lhs.false.i.i.i, %if.end.i.i
  call void @_ZN6vectorIjLb0EjE13expand_vectorEv(ptr noundef nonnull align 8 dereferenceable(8) %m_free_ids.i.i)
  %.pre.i.i.i = load ptr, ptr %m_free_ids.i.i, align 8
  %arrayidx8.phi.trans.insert.i.i.i = getelementptr inbounds i8, ptr %.pre.i.i.i, i64 -4
  %.pre1.i.i.i = load i32, ptr %arrayidx8.phi.trans.insert.i.i.i, align 4
  br label %_ZN6vectorIjLb0EjE9push_backERKj.exit.i.i

_ZN6vectorIjLb0EjE9push_backERKj.exit.i.i:        ; preds = %if.then.i.i.i1, %lor.lhs.false.i.i.i
  %6 = phi i32 [ %.pre1.i.i.i, %if.then.i.i.i1 ], [ %4, %lor.lhs.false.i.i.i ]
  %7 = phi ptr [ %.pre.i.i.i, %if.then.i.i.i1 ], [ %3, %lor.lhs.false.i.i.i ]
  %idx.ext.i.i.i = zext i32 %6 to i64
  %add.ptr.i.i.i = getelementptr inbounds i32, ptr %7, i64 %idx.ext.i.i.i
  store i32 %2, ptr %add.ptr.i.i.i, align 4
  %8 = load ptr, ptr %m_free_ids.i.i, align 8
  %arrayidx10.i.i.i = getelementptr inbounds i8, ptr %8, i64 -4
  %9 = load i32, ptr %arrayidx10.i.i.i, align 4
  %inc.i.i.i = add i32 %9, 1
  store i32 %inc.i.i.i, ptr %arrayidx10.i.i.i, align 4
  br label %_ZN15fpa_decl_plugin11recycled_idEj.exit

_ZN15fpa_decl_plugin11recycled_idEj.exit:         ; preds = %_ZNK9parameter10get_ext_idEv.exit, %_ZN6vectorIjLb0EjE9push_backERKj.exit.i.i
  %m_values.i = getelementptr inbounds i8, ptr %this, i64 880
  %10 = load i32, ptr %id.addr.i, align 4
  %11 = load ptr, ptr %m_values.i, align 8
  %idxprom.i.i = zext i32 %10 to i64
  %m_mpz_manager.i.i = getelementptr inbounds i8, ptr %this, i64 752
  %12 = load ptr, ptr %m_mpz_manager.i.i, align 8
  %significand.i.i = getelementptr inbounds %class.mpf, ptr %11, i64 %idxprom.i.i, i32 1
  call void @_ZN11mpz_managerILb0EE3delEPS0_R3mpz(ptr noundef nonnull %12, ptr noundef nonnull align 8 dereferenceable(16) %significand.i.i)
  call void @llvm.lifetime.end.p0(i64 4, ptr nonnull %id.addr.i)
  ret void
}